(dp0
Vneighbors
p1
Vneighbor
p2
sVcaused
p3
Vcause
p4
sValternatives
p5
Valternative
p6
sVresults
p7
Vresult
p8
sVillustrated
p9
Villustrate
p10
sVbandits
p11
Vbandit
p12
sVconsists
p13
Vconsist
p14
sVexpressions
p15
Vexpression
p16
sVcontributions
p17
Vcontribution
p18
sVrelationships
p19
Vrelationship
p20
sVpreserves
p21
Vpreserve
p22
sVrnns
p23
Vrnn
p24
sVsegments
p25
Vsegment
p26
sVhelps
p27
Vhelp
p28
sVnodes
p29
Vnode
p30
sVupdated
p31
Vupdate
p32
sVtradeoffs
p33
Vtradeoff
p34
sVreconstructions
p35
Vreconstruction
p36
sVupdates
p37
g32
sVdeformations
p38
Vdeformation
p39
sVleads
p40
Vlead
p41
sVsolves
p42
Vsolve
p43
sVsolver
p44
g43
sVturns
p45
Vturn
p46
sVproposals
p47
Vproposal
p48
sVintegrated
p49
Vintegrate
p50
sVsolved
p51
g43
sVconfigurations
p52
Vconfiguration
p53
sVfindings
p54
Vfinding
p55
sVestimates
p56
Vestimate
p57
sVautoencoders
p58
Vautoencoder
p59
sVdynamics
p60
Vdynamic
p61
sVestimated
p62
g57
sVtargets
p63
Vtarget
p64
sVmachines
p65
Vmachine
p66
sVerrors
p67
Verror
p68
sVplays
p69
Vplay
p70
sVdecisions
p71
Vdecision
p72
sVrgbd
p73
Vrgb
p74
sVsubspaces
p75
Vsubspace
p76
sVactivations
p77
Vactivation
p78
sVshared
p79
Vshare
p80
sVseeks
p81
Vseek
p82
sVlayers
p83
Vlayer
p84
sVanswers
p85
Vanswer
p86
sVobjects
p87
Vobject
p88
sVgroups
p89
Vgroup
p90
sVdirections
p91
Vdirection
p92
sVequations
p93
Vequation
p94
sVinvolved
p95
Vinvolve
p96
sVvectors
p97
Vvector
p98
sVallows
p99
Vallow
p100
sVsuggests
p101
Vsuggest
p102
sVdomains
p103
Vdomain
p104
sVmakes
p105
Vmake
p106
sVinvolves
p107
g96
sVformulated
p108
Vformulate
p109
sVscales
p110
Vscale
p111
sVoutcomes
p112
Voutcome
p113
sVtools
p114
Vtool
p115
sVobjectives
p116
Vobjective
p117
sVcontains
p118
Vcontain
p119
sVpredictions
p120
Vprediction
p121
sVscenarios
p122
Vscenario
p123
sVhandles
p124
Vhandle
p125
sVselects
p126
Vselect
p127
sVannotations
p128
Vannotation
p129
sVoutputs
p130
Voutput
p131
sVoperators
p132
Voperator
p133
sVcases
p134
Vcase
p135
sVinsights
p136
Vinsight
p137
sVstates
p138
Vstate
p139
sVvalues
p140
Vvalue
p141
sVconcepts
p142
Vconcept
p143
sVlinks
p144
Vlink
p145
sVimplementations
p146
Vimplementation
p147
sVocclusions
p148
Vocclusion
p149
sVassumptions
p150
Vassumption
p151
sVsegmentations
p152
Vsegmentation
p153
sVnumbers
p154
Vnumber
p155
sVemploys
p156
Vemploy
p157
sVarise
p158
Vrise
p159
sVvalidated
p160
Vvalidate
p161
sVneeds
p162
Vneed
p163
sVrequirements
p164
Vrequirement
p165
sVrecovery
p166
Vrecover
p167
sVholds
p168
Vhold
p169
sVrecovers
p170
g167
sVregions
p171
Vregion
p172
sVmaps
p173
Vmap
p174
sVinputs
p175
Vinput
p176
sVexplores
p177
Vexplore
p178
sVderived
p179
Vderive
p180
sVapplications
p181
Vapplication
p182
sVexplored
p183
g178
sVrepresentations
p184
Vrepresentation
p185
sVminimizes
p186
Vminimize
p187
sVcodes
p188
Vcode
p189
sVtypes
p190
Vtype
p191
sVpredictors
p192
Vpredictor
p193
sVcomputations
p194
Vcomputation
p195
sVprojections
p196
Vprojection
p197
sVaccelerated
p198
Vaccelerate
p199
sValgorithms
p200
Valgorithm
p201
sVoperations
p202
Voperation
p203
sVproduces
p204
Vproduce
p205
sVproduced
p206
g205
sVexperiments
p207
Vexperiment
p208
sVmotions
p209
Vmotion
p210
sVnets
p211
Vnet
p212
sVfeatures
p213
Vfeature
p214
sVexhibits
p215
Vexhibit
p216
sVforms
p217
Vform
p218
sVoffers
p219
Voffer
p220
sVclusters
p221
Vcluster
p222
sVviews
p223
Vview
p224
sVquestions
p225
Vquestion
p226
sVavoids
p227
Vavoid
p228
sVeffects
p229
Veffect
p230
sVrepresents
p231
Vrepresent
p232
sVpositions
p233
Vposition
p234
sVcharacterized
p235
Vcharacterize
p236
sVconstraints
p237
Vconstraint
p238
sVschemes
p239
Vscheme
p240
sVprinciples
p241
Vprinciple
p242
sVchallenges
p243
Vchallenge
p244
sVobtains
p245
Vobtain
p246
sVblocks
p247
Vblock
p248
sVprincipled
p249
g242
sVmaximizes
p250
Vmaximize
p251
sVfactors
p252
Vfactor
p253
sVintegrates
p254
g50
sVcameras
p255
Vcamera
p256
sVsquared
p257
Vsquare
p258
sVperforms
p259
Vperform
p260
sVsquares
p261
g258
sVsupports
p262
Vsupport
p263
sVoccurs
p264
Voccur
p265
sVinteractions
p266
Vinteraction
p267
sVhyperparameters
p268
Vhyperparameter
p269
sVmechanisms
p270
Vmechanism
p271
sVdifficulty
p272
Vdifficult
p273
sVadvantages
p274
Vadvantage
p275
sVsensors
p276
Vsensor
p277
sVincorporates
p278
Vincorporate
p279
sVpairs
p280
Vpair
p281
sVbenefits
p282
Vbenefit
p283
sVspeedups
p284
Vspeedup
p285
sVcreated
p286
Vcreate
p287
sVtimes
p288
Vtime
p289
sVedges
p290
Vedge
p291
sVincorporated
p292
g279
sVuser
p293
Vuse
p294
sVutilizes
p295
Vutilize
p296
sVvariables
p297
Vvariable
p298
sVchannels
p299
Vchannel
p300
sVinstances
p301
Vinstance
p302
sVutilized
p303
g296
sVimprovements
p304
Vimprovement
p305
sVsolvers
p306
g44
sVevaluations
p307
Vevaluation
p308
sVmillions
p309
Vmillion
p310
sVcnns
p311
Vcnn
p312
sVstructured
p313
Vstructure
p314
sVrelations
p315
Vrelation
p316
sVrates
p317
Vrate
p318
sVobservations
p319
Vobservation
p320
sVgpu
p321
Vgp
p322
sVstructures
p323
g314
sVrewards
p324
Vreward
p325
sValgorthms
p326
Valgorthm
p327
sVclassifiers
p328
Vclassifier
p329
sVcoefficients
p330
Vcoefficient
p331
sVobserved
p332
Vobserve
p333
sVapproximations
p334
Vapproximation
p335
sVscenes
p336
Vscene
p337
sVaims
p338
Vaim
p339
sVdetermined
p340
Vdetermine
p341
sVenables
p342
Venable
p343
sVdescriptions
p344
Vdescription
p345
sVbehaviors
p346
Vbehavior
p347
sVbridge
p348
Vridge
p349
sVtopics
p350
Vtopic
p351
sVlocations
p352
Vlocation
p353
sVcurves
p354
Vcurve
p355
sVoutperforms
p356
Voutperform
p357
sVsentences
p358
Vsentence
p359
sVorders
p360
Vorder
p361
sVpaths
p362
Vpath
p363
sVgeneralizes
p364
Vgeneralize
p365
sVdocuments
p366
Vdocument
p367
sVnormals
p368
Vnormal
p369
sVideas
p370
Videa
p371
sVconverges
p372
Vconverge
p373
sVideal
p374
Vdeal
p375
sVsubjects
p376
Vsubject
p377
sVgeneralized
p378
g365
sVstrengths
p379
Vstrength
p380
sVoptimizes
p381
Voptimize
p382
sVmeasures
p383
Vmeasure
p384
sVmetrics
p385
Vmetric
p386
sVoptimized
p387
g382
sVmeasured
p388
g384
sVapproximates
p389
Vapproximate
p390
sVperformances
p391
Vperformance
p392
sVdetectors
p393
Vdetector
p394
sVgraphs
p395
Vgraph
p396
sVpoints
p397
Vpoint
p398
sVdatabases
p399
Vdatabase
p400
sVheuristics
p401
Vheuristic
p402
sVlabels
p403
Vlabel
p404
sVattempts
p405
Vattempt
p406
sVspaces
p407
Vspace
p408
sVsolutions
p409
Vsolution
p410
sVnetworks
p411
Vnetwork
p412
sVslow
p413
Vlow
p414
sVbased
p415
Vbase
p416
sVensembles
p417
Vensemble
p418
sVparameters
p419
Vparameter
p420
sVcontrols
p421
Vcontrol
p422
sVbases
p423
g416
sVcandidates
p424
Vcandidate
p425
sVsemantics
p426
Vsemantic
p427
sVgains
p428
Vgain
p429
sVmeans
p430
Vmean
p431
sVtrees
p432
Vtree
p433
sVnearly
p434
Vearly
p435
sVwords
p436
Vword
p437
sVcombinations
p438
Vcombination
p439
sVprocedures
p440
Vprocedure
p441
sVareas
p442
Varea
p443
sVruns
p444
Vrun
p445
sVsettings
p446
Vsetting
p447
sVfields
p448
Vfield
p449
sVreveals
p450
Vreveal
p451
sVpredicts
p452
Vpredict
p453
sVexists
p454
Vexist
p455
sVachieved
p456
Vachieve
p457
sVachieves
p458
g457
sVcorrelations
p459
Vcorrelation
p460
sVhumans
p461
Vhuman
p462
sVoperates
p463
Voperate
p464
sVconnections
p465
Vconnection
p466
sVdepends
p467
Vdepend
p468
sVcomputer
p469
Vcompute
p470
sVstateofthearts
p471
Vstateoftheart
p472
sVenhanced
p473
Venhance
p474
sVembeddings
p475
Vembedding
p476
sVtechniques
p477
Vtechnique
p478
sVsurfaces
p479
Vsurface
p480
sVfails
p481
Vfail
p482
sVlearns
p483
Vlearn
p484
sVlearnt
p485
g484
sVways
p486
Vway
p487
sVtend
p488
Vend
p489
sVscore
p490
Vcore
p491
sVclosed
p492
Vclose
p493
sVdrawn
p494
Vdraw
p495
sVconditions
p496
Vcondition
p497
sVdiscovery
p498
Vdiscover
p499
sVterms
p500
Vterm
p501
sVresponses
p502
Vresponse
p503
sVanalyzed
p504
Vanalyze
p505
sVpixels
p506
Vpixel
p507
sVimproved
p508
Vimprove
p509
sVlimits
p510
Vlimit
p511
sVimproves
p512
g509
sVstreams
p513
Vstream
p514
sVfaces
p515
Vface
p516
sVattributes
p517
Vattribute
p518
sVcomes
p519
Vcome
p520
sVreasons
p521
Vreason
p522
sVcorresponds
p523
Vcorrespond
p524
sVenvironments
p525
Venvironment
p526
sVdnns
p527
Vdnn
p528
sVagents
p529
Vagent
p530
sViterations
p531
Viteration
p532
sVsequences
p533
Vsequence
p534
sVkernels
p535
Vkernel
p536
sVcombines
p537
Vcombine
p538
sVtransformations
p539
Vtransformation
p540
sVfilters
p541
Vfilter
p542
sVcombined
p543
g538
sVextends
p544
Vextend
p545
sVoutliers
p546
Voutlier
p547
sVarises
p548
g158
sVmanifolds
p549
Vmanifold
p550
sVsubsets
p551
Vsubset
p552
sVcontexts
p553
Vcontext
p554
sVevaluated
p555
Vevaluate
p556
sVchoices
p557
Vchoice
p558
sVframeworks
p559
Vframework
p560
sVcomputed
p561
g470
sVlarger
p562
Vlarge
p563
sVcharacteristics
p564
Vcharacteristic
p565
sVexperts
p566
Vexpert
p567
sVformulations
p568
Vformulation
p569
sVmixtures
p570
Vmixture
p571
sVunits
p572
Vunit
p573
sVgames
p574
Vgame
p575
sVevents
p576
Vevent
p577
sVinvestigated
p578
Vinvestigate
p579
sVlevels
p580
Vlevel
p581
sVuses
p582
g294
sVarchitectures
p583
Varchitecture
p584
sVpotentials
p585
Vpotential
p586
sVprograms
p587
Vprogram
p588
sVchanges
p589
Vchange
p590
sVpatterns
p591
Vpattern
p592
sVcosts
p593
Vcost
p594
sVcomponents
p595
Vcomponent
p596
sVsets
p597
Vset
p598
sVcomparisons
p599
Vcomparison
p600
sVdistances
p601
Vdistance
p602
sVexploits
p603
Vexploit
p604
sVmoments
p605
Vmoment
p606
sVcaptures
p607
Vcapture
p608
sVactions
p609
Vaction
p610
sVsources
p611
Vsource
p612
sVtransforms
p613
Vtransform
p614
sVcorrespondences
p615
Vcorrespondence
p616
sVcaptured
p617
g608
sVsampled
p618
Vsample
p619
sVguaranteed
p620
Vguarantee
p621
sVsignals
p622
Vsignal
p623
sVcollections
p624
Vcollection
p625
sVsamples
p626
g619
sVsampler
p627
g619
sVguarantees
p628
g621
sVbaselines
p629
Vbaseline
p630
sVtests
p631
Vtest
p632
sVaspects
p633
Vaspect
p634
sVincreased
p635
Vincrease
p636
sVrules
p637
Vrule
p638
sVadvances
p639
Vadvance
p640
sVincreases
p641
g636
sVvariants
p642
Vvariant
p643
sVposes
p644
Vpose
p645
sVadvanced
p646
g640
sVparticle
p647
Varticle
p648
sVsizes
p649
Vsize
p650
sVreduces
p651
Vreduce
p652
sVshapes
p653
Vshape
p654
sVdetections
p655
Vdetection
p656
sVindividuals
p657
Vindividual
p658
sVyields
p659
Vyield
p660
sVreduced
p661
g652
sVexamples
p662
Vexample
p663
sVimages
p664
Vimage
p665
sVgenerates
p666
Vgenerate
p667
sVdimensions
p668
Vdimension
p669
sVminimax
p670
Vminima
p671
sVmeasurements
p672
Vmeasurement
p673
sVtends
p674
g488
sVsteps
p675
Vstep
p676
sVleverages
p677
Vleverage
p678
sVminimal
p679
g671
sVlimitations
p680
Vlimitation
p681
sVviewpoints
p682
Vviewpoint
p683
sVsimpler
p684
Vsimple
p685
sVintroduces
p686
Vintroduce
p687
sVextensions
p688
Vextension
p689
sVefforts
p690
Veffort
p691
sVintroduced
p692
g687
sVcomputes
p693
g470
sg665
Vimag
p694
sVkmeans
p695
g430
sVestimators
p696
Vestimator
p697
sVframes
p698
Vframe
p699
sVrefined
p700
Vrefine
p701
sVstatistics
p702
Vstatistic
p703
sVassumed
p704
Vassume
p705
sVassumes
p706
g705
sVdifferences
p707
Vdifference
p708
sVencodes
p709
Vencode
p710
sVencoder
p711
g710
sVencoded
p712
g710
sVdatasets
p713
Vdataset
p714
sVbuilds
p715
Vbuild
p716
sVversions
p717
Vversion
p718
sVvariations
p719
Vvariation
p720
sVbounds
p721
Vbound
p722
sVbenchmarks
p723
Vbenchmark
p724
sVstages
p725
Vstage
p726
sVproved
p727
Vprove
p728
sVvideos
p729
Vvideo
p730
sVdefined
p731
Vdefine
p732
sVflow
p733
g414
sVproven
p734
g728
sVsimulations
p735
Vsimulation
p736
sVgradients
p737
Vgradient
p738
sVdistributions
p739
Vdistribution
p740
sVapproximated
p741
g390
sVfunctions
p742
Vfunction
p743
sVcompared
p744
Vcompare
p745
sVpriors
p746
Vprior
p747
sVforests
p748
Vforest
p749
sVpriori
p750
g747
sVcompares
p751
g745
sVdescriptors
p752
Vdescriptor
p753
sg495
Vraw
p754
sVelements
p755
Velement
p756
sVkinds
p757
Vkind
p758
sVusers
p759
g293
sVmodels
p760
Vmodel
p761
sVgenerated
p762
g667
sVscores
p763
g490
sVsuffers
p764
Vsuffer
p765
sVrequired
p766
Vrequire
p767
sVweights
p768
Vweight
p769
sVrequires
p770
g767
s.