(dp0
Vneighbors
p1
Vneighbor
p2
sVcaused
p3
Vcause
p4
sValternatives
p5
Valternative
p6
sVillustrated
p7
Villustrate
p8
sVbandits
p9
Vbandit
p10
sVconsists
p11
Vconsist
p12
sVcontributions
p13
Vcontribution
p14
sVrelationships
p15
Vrelationship
p16
sVpreserves
p17
Vpreserve
p18
sVrnns
p19
Vrnn
p20
sVsegments
p21
Vsegment
p22
sVhelps
p23
Vhelp
p24
sVnodes
p25
Vnode
p26
sVupdated
p27
Vupdate
p28
sVtradeoffs
p29
Vtradeoff
p30
sVupdates
p31
g28
sVpartitions
p32
Vpartition
p33
sVleads
p34
Vlead
p35
sVsolves
p36
Vsolve
p37
sVturns
p38
Vturn
p39
sVproposals
p40
Vproposal
p41
sVintegrated
p42
Vintegrate
p43
sVsolved
p44
g37
sVconfigurations
p45
Vconfiguration
p46
sVfindings
p47
Vfinding
p48
sVestimates
p49
Vestimate
p50
sVapproximation
p51
Vapproximate
p52
sVautoencoders
p53
Vautoencoder
p54
sVdynamics
p55
Vdynamic
p56
sVestimated
p57
g50
sVtargets
p58
Vtarget
p59
sVmachines
p60
Vmachine
p61
sVerrors
p62
Verror
p63
sVplays
p64
Vplay
p65
sVpreferences
p66
Vpreference
p67
sVdecisions
p68
Vdecision
p69
sVrgbd
p70
Vrgb
p71
sVsubspaces
p72
Vsubspace
p73
sVactivations
p74
Vactivation
p75
sVshared
p76
Vshare
p77
sVseeks
p78
Vseek
p79
sVlayers
p80
Vlayer
p81
sVgener
p82
Vgene
p83
sVanswers
p84
Vanswer
p85
sVobjects
p86
Vobject
p87
sVgroups
p88
Vgroup
p89
sVdirections
p90
Vdirection
p91
sVequations
p92
Vequation
p93
sVappears
p94
Vappear
p95
sVinvolved
p96
Vinvolve
p97
sVvectors
p98
Vvector
p99
sVallows
p100
Vallow
p101
sVsuggests
p102
Vsuggest
p103
sVproducts
p104
Vproduct
p105
sVdomains
p106
Vdomain
p107
sVmakes
p108
Vmake
p109
sVinvolves
p110
g97
sVformulated
p111
Vformulate
p112
sVscales
p113
Vscale
p114
sVoutcomes
p115
Voutcome
p116
sVcounts
p117
Vcount
p118
sVtools
p119
Vtool
p120
sVobjectives
p121
Vobjective
p122
sVcontains
p123
Vcontain
p124
sVarms
p125
Varm
p126
sVscenarios
p127
Vscenario
p128
sVselects
p129
Vselect
p130
sVannotations
p131
Vannotation
p132
sVoutputs
p133
Voutput
p134
sVoperators
p135
Voperator
p136
sVcases
p137
Vcase
p138
sVinsights
p139
Vinsight
p140
sVstates
p141
Vstate
p142
sVvalues
p143
Vvalue
p144
sVconcepts
p145
Vconcept
p146
sVlinks
p147
Vlink
p148
sVimplementations
p149
Vimplementation
p150
sVocclusions
p151
Vocclusion
p152
sVassumptions
p153
Vassumption
p154
sVnumbers
p155
Vnumber
p156
sVemploys
p157
Vemploy
p158
sVvalidated
p159
Vvalidate
p160
sVneeds
p161
Vneed
p162
sVrequirements
p163
Vrequirement
p164
sVrecovery
p165
Vrecover
p166
sVholds
p167
Vhold
p168
sVrecovers
p169
g166
sVregions
p170
Vregion
p171
sVmaps
p172
Vmap
p173
sVoptimal
p174
Voptima
p175
sVinputs
p176
Vinput
p177
sVexplores
p178
Vexplore
p179
sVderived
p180
Vderive
p181
sVapplications
p182
Vapplication
p183
sVexplored
p184
g179
sVrepresentations
p185
Vrepresentation
p186
sVminimizes
p187
Vminimize
p188
sVcodes
p189
Vcode
p190
sVtypes
p191
Vtype
p192
sVpredictors
p193
Vpredictor
p194
sVcomputations
p195
Vcomputation
p196
sVaccelerated
p197
Vaccelerate
p198
sValgorithms
p199
Valgorithm
p200
sVoperations
p201
Voperation
p202
sVproduces
p203
Vproduce
p204
sVproduced
p205
g204
sVexperiments
p206
Vexperiment
p207
sVmotions
p208
Vmotion
p209
sVfacilitates
p210
Vfacilitate
p211
sVnets
p212
Vnet
p213
sVfeatures
p214
Vfeature
p215
sVexhibits
p216
Vexhibit
p217
sVforms
p218
Vform
p219
sVoffers
p220
Voffer
p221
sVclusters
p222
Vcluster
p223
sVviews
p224
Vview
p225
sVquestions
p226
Vquestion
p227
sVavoids
p228
Vavoid
p229
sVeffects
p230
Veffect
p231
sVrepresents
p232
Vrepresent
p233
sVpositions
p234
Vposition
p235
sVcharacterized
p236
Vcharacterize
p237
sVconstraints
p238
Vconstraint
p239
sVschemes
p240
Vscheme
p241
sVprinciples
p242
Vprinciple
p243
sVrelated
p244
Vrelate
p245
sVchallenges
p246
Vchallenge
p247
sVobtains
p248
Vobtain
p249
sVblocks
p250
Vblock
p251
sVprincipled
p252
g243
sVmaximizes
p253
Vmaximize
p254
sVfactors
p255
Vfactor
p256
sVintegrates
p257
g43
sVcameras
p258
Vcamera
p259
sVsquared
p260
Vsquare
p261
sVposteriori
p262
Vposterior
p263
sVperforms
p264
Vperform
p265
sVlearners
p266
Vlearner
p267
sVsquares
p268
g261
sVsupports
p269
Vsupport
p270
sVoccurs
p271
Voccur
p272
sVinteractions
p273
Vinteraction
p274
sVhyperparameters
p275
Vhyperparameter
p276
sVmechanisms
p277
Vmechanism
p278
sVsensory
p279
Vsensor
p280
sVdifficulty
p281
Vdifficult
p282
sVadvantages
p283
Vadvantage
p284
sVsensors
p285
g280
sVincorporates
p286
Vincorporate
p287
sVpairs
p288
Vpair
p289
sVbenefits
p290
Vbenefit
p291
sVspeedups
p292
Vspeedup
p293
sVcreated
p294
Vcreate
p295
sVedges
p296
Vedge
p297
sVincorporated
p298
g287
sVutilizes
p299
Vutilize
p300
sVvariables
p301
Vvariable
p302
sVchannels
p303
Vchannel
p304
sVinstances
p305
Vinstance
p306
sVutilized
p307
g300
sVimprovements
p308
Vimprovement
p309
sVsolvers
p310
Vsolver
p311
sVevaluations
p312
Vevaluation
p313
sVmillions
p314
Vmillion
p315
sVcnns
p316
Vcnn
p317
sVstructured
p318
Vstructure
p319
sVrelations
p320
Vrelation
p321
sVrates
p322
Vrate
p323
sVobservations
p324
Vobservation
p325
sVbits
p326
Vbit
p327
sVrewards
p328
Vreward
p329
sS'algorthms'
p330
S'algorithm'
p331
sVnorms
p332
Vnorm
p333
sVclassifiers
p334
Vclassifier
p335
sVcoefficients
p336
Vcoefficient
p337
sVobserved
p338
Vobserve
p339
sVstructures
p340
g319
sVapproximations
p341
Vapproximation
p342
sVscenes
p343
Vscene
p344
sVaims
p345
Vaim
p346
sVdetermined
p347
Vdetermine
p348
sVenables
p349
Venable
p350
sVprojections
p351
Vprojection
p352
sVbehaviors
p353
Vbehavior
p354
sVtopics
p355
Vtopic
p356
sVlocations
p357
Vlocation
p358
sVcurves
p359
Vcurve
p360
sVoutperforms
p361
Voutperform
p362
sVsentences
p363
Vsentence
p364
sVorders
p365
Vorder
p366
sVpaths
p367
Vpath
p368
sVgeneralizes
p369
Vgeneralize
p370
sVdocuments
p371
Vdocument
p372
sVideas
p373
Videa
p374
sVconverges
p375
Vconverge
p376
sVsubjects
p377
Vsubject
p378
sVgeneralized
p379
g370
sVoptimizes
p380
Voptimize
p381
sVmeasures
p382
Vmeasure
p383
sVmetrics
p384
Vmetric
p385
sVoptimized
p386
g381
sVmeasured
p387
g383
sVperformances
p388
Vperformance
p389
sVdetectors
p390
Vdetector
p391
sVgraphs
p392
Vgraph
p393
sVpoints
p394
Vpoint
p395
sVdatabases
p396
Vdatabase
p397
sVheuristics
p398
Vheuristic
p399
sVlabels
p400
Vlabel
p401
sVattempts
p402
Vattempt
p403
sVspaces
p404
Vspace
p405
sVsolutions
p406
Vsolution
p407
sVnetworks
p408
Vnetwork
p409
sVensembles
p410
Vensemble
p411
sVparameters
p412
Vparameter
p413
sVsituations
p414
Vsituation
p415
sVcandidates
p416
Vcandidate
p417
sVsemantics
p418
Vsemantic
p419
sVcolumns
p420
Vcolumn
p421
sVgains
p422
Vgain
p423
sVmeans
p424
Vmean
p425
sVtrees
p426
Vtree
p427
sVwords
p428
Vword
p429
sVcombinations
p430
Vcombination
p431
sVprocedures
p432
Vprocedure
p433
sVareas
p434
Varea
p435
sVruns
p436
Vrun
p437
sVsettings
p438
Vsetting
p439
sVfields
p440
Vfield
p441
sVreveals
p442
Vreveal
p443
sVpredicts
p444
Vpredict
p445
sVexists
p446
Vexist
p447
sVachieved
p448
Vachieve
p449
sVachieves
p450
g449
sVcorrelations
p451
Vcorrelation
p452
sVhumans
p453
Vhuman
p454
sVoperates
p455
Voperate
p456
sVconnections
p457
Vconnection
p458
sVdepends
p459
Vdepend
p460
sVcomputer
p461
Vcompute
p462
sVdescriptions
p463
Vdescription
p464
sVenhanced
p465
Venhance
p466
sVembeddings
p467
Vembedding
p468
sVtechniques
p469
Vtechnique
p470
sVsurfaces
p471
Vsurface
p472
sVlearns
p473
Vlearn
p474
sVlearnt
p475
g474
sVlnear
p476
Vlinear
p477
sVways
p478
Vway
p479
sVclosed
p480
Vclose
p481
sVdrawn
p482
Vdraw
p483
sVconditions
p484
Vcondition
p485
sVdiscovery
p486
Vdiscover
p487
sVterms
p488
Vterm
p489
sVresponses
p490
Vresponse
p491
sVanalyzed
p492
Vanalyze
p493
sVpixels
p494
Vpixel
p495
sVimproved
p496
Vimprove
p497
sVlimits
p498
Vlimit
p499
sVimproves
p500
g497
sVstreams
p501
Vstream
p502
sVfaces
p503
Vface
p504
sVattributes
p505
Vattribute
p506
sVcomes
p507
Vcome
p508
sVreasons
p509
Vreason
p510
sVcorresponds
p511
Vcorrespond
p512
sVenvironments
p513
Venvironment
p514
sVagents
p515
Vagent
p516
sViterations
p517
Viteration
p518
sVsequences
p519
Vsequence
p520
sVkernels
p521
Vkernel
p522
sVcombines
p523
Vcombine
p524
sVtransformations
p525
Vtransformation
p526
sVfilters
p527
Vfilter
p528
sVcombined
p529
g524
sVcollections
p530
Vcollection
p531
sVoutliers
p532
Voutlier
p533
sVarises
p534
Varise
p535
sS'imag'
p536
S'image'
p537
sVmanifolds
p538
Vmanifold
p539
sVsubsets
p540
Vsubset
p541
sVcontexts
p542
Vcontext
p543
sVevaluated
p544
Vevaluate
p545
sVchoices
p546
Vchoice
p547
sVframeworks
p548
Vframework
p549
sVitems
p550
Vitem
p551
sVcomputed
p552
g462
sVlarger
p553
Vlarge
p554
sVcharacteristics
p555
Vcharacteristic
p556
sVneurons
p557
Vneuron
p558
sVexperts
p559
Vexpert
p560
sVformulations
p561
Vformulation
p562
sVmixtures
p563
Vmixture
p564
sVunits
p565
Vunit
p566
sVgames
p567
Vgame
p568
sVevents
p569
Vevent
p570
sVinvestigated
p571
Vinvestigate
p572
sVlevels
p573
Vlevel
p574
sVuses
p575
Vuse
p576
sVarchitectures
p577
Varchitecture
p578
sVpotentials
p579
Vpotential
p580
sVprograms
p581
Vprogram
p582
sVchanges
p583
Vchange
p584
sVpatterns
p585
Vpattern
p586
sVcosts
p587
Vcost
p588
sVcomponents
p589
Vcomponent
p590
sVsets
p591
Vset
p592
sVcomparisons
p593
Vcomparison
p594
sVdistances
p595
Vdistance
p596
sVexploits
p597
Vexploit
p598
sVmoments
p599
Vmoment
p600
sVcaptures
p601
Vcapture
p602
sVactions
p603
Vaction
p604
sVsources
p605
Vsource
p606
sVtransforms
p607
Vtransform
p608
sVcorrespondences
p609
Vcorrespondence
p610
sVrelaxations
p611
Vrelaxation
p612
sVcaptured
p613
g602
sVsampled
p614
Vsample
p615
sVguaranteed
p616
Vguarantee
p617
sVsignals
p618
Vsignal
p619
sVextends
p620
Vextend
p621
sVsamples
p622
g615
sVsampler
p623
g615
sVguarantees
p624
g617
sVbaselines
p625
Vbaseline
p626
sVtests
p627
Vtest
p628
sVaspects
p629
Vaspect
p630
sVincreased
p631
Vincrease
p632
sVrules
p633
Vrule
p634
sVadvances
p635
Vadvance
p636
sVincreases
p637
g632
sVvariants
p638
Vvariant
p639
sVposes
p640
Vpose
p641
sVadvanced
p642
g636
sVmodifications
p643
Vmodification
p644
sVimposed
p645
Vimpose
p646
sVsizes
p647
Vsize
p648
sVreduces
p649
Vreduce
p650
sVshapes
p651
Vshape
p652
sVindividuals
p653
Vindividual
p654
sVyields
p655
Vyield
p656
sVreduced
p657
g650
sVexamples
p658
Vexample
p659
sVimages
p660
Vimage
p661
sVgenerates
p662
Vgenerate
p663
sVdimensions
p664
Vdimension
p665
sVmeasurements
p666
Vmeasurement
p667
sVsteps
p668
Vstep
p669
sVleverages
p670
Vleverage
p671
sVlimitations
p672
Vlimitation
p673
sVregularizers
p674
Vregularizer
p675
sVsimpler
p676
Vsimple
p677
sVcomparison
p678
Vcompare
p679
sValgorthm
p680
Valgorithm
p681
sVextensions
p682
Vextension
p683
sVefforts
p684
Veffort
p685
sVcomputes
p686
g462
sVsvms
p687
Vsvm
p688
sVpredictions
p689
Vprediction
p690
sVaccounts
p691
Vaccount
p692
sVestimators
p693
Vestimator
p694
sVframes
p695
Vframe
p696
sVrefined
p697
Vrefine
p698
sVstatistics
p699
Vstatistic
p700
sVtrains
p701
Vtrain
p702
sVassumed
p703
Vassume
p704
sVassumes
p705
g704
sVdifferences
p706
Vdifference
p707
sVencodes
p708
Vencode
p709
sVapproximates
p710
Vapproximate
p711
sVencoded
p712
g709
sVdatasets
p713
Vdataset
p714
sVbuilds
p715
Vbuild
p716
sVversions
p717
Vversion
p718
sVvariations
p719
Vvariation
p720
sVbounds
p721
Vbound
p722
sVbenchmarks
p723
Vbenchmark
p724
sVstages
p725
Vstage
p726
sVregimes
p727
Vregime
p728
sVproved
p729
Vprove
p730
sVvideos
p731
Vvideo
p732
sVdefined
p733
Vdefine
p734
sVproven
p735
g730
sVsimulations
p736
Vsimulation
p737
sVgradients
p738
Vgradient
p739
sVdistributions
p740
Vdistribution
p741
sVapproximated
p742
g711
sVfunctions
p743
Vfunction
p744
sVcompared
p745
Vcompare
p746
sVpriors
p747
Vprior
p748
sVforests
p749
Vforest
p750
sVpriori
p751
g748
sVcompares
p752
g746
sVdescriptors
p753
Vdescriptor
p754
sVkinds
p755
Vkind
p756
sVusers
p757
Vuser
p758
sVmodels
p759
Vmodel
p760
sVgenerated
p761
g663
sVscores
p762
Vscore
p763
sVsuffers
p764
Vsuffer
p765
sVrequired
p766
Vrequire
p767
sVweights
p768
Vweight
p769
sVrequires
p770
g767
s.