(dp0
Vcnns
p1
Vcnn
p2
sVimage
p3
Vimag
p4
sVresults
p5
Vresult
p6
sVdnns
p7
Vdnn
p8
sVexperiments
p9
Vexperiment
p10
sVimags
p11
g4
sVnetworks
p12
Vnetwork
p13
sVmachines
p14
Vmachine
p15
sVcompared
p16
Vcompare
p17
sVbased
p18
Vbase
p19
sVnets
p20
Vnet
p21
sVrgbd
p22
Vrgb
p23
sVmeans
p24
Vmean
p25
sVmodels
p26
Vmodel
p27
sVrnns
p28
Vrnn
p29
sVsuperpixels
p30
Vsuperpixel
p31
sVsolver
p32
Vsolve
p33
s.